
EtherProg.elf:     file format elf32-avr

Sections:
Idx Name          Size      VMA       LMA       File off  Algn
  0 .text         000009cc  00000000  00000000  00000094  2**1
                  CONTENTS, ALLOC, LOAD, READONLY, CODE
  1 .data         00000004  00800060  000009cc  00000a60  2**0
                  CONTENTS, ALLOC, LOAD, DATA
  2 .bss          00000047  00800064  00800064  00000a64  2**0
                  ALLOC
  3 .stab         00000840  00000000  00000000  00000a64  2**2
                  CONTENTS, READONLY, DEBUGGING
  4 .stabstr      000000b2  00000000  00000000  000012a4  2**0
                  CONTENTS, READONLY, DEBUGGING

Disassembly of section .text:

00000000 <__vectors>:
   0:	31 c0       	rjmp	.+98     	; 0x64 <__ctors_end>
   2:	4b c0       	rjmp	.+150    	; 0x9a <__bad_interrupt>
   4:	d0 c1       	rjmp	.+928    	; 0x3a6 <__vector_2>
   6:	49 c0       	rjmp	.+146    	; 0x9a <__bad_interrupt>
   8:	48 c0       	rjmp	.+144    	; 0x9a <__bad_interrupt>
   a:	47 c0       	rjmp	.+142    	; 0x9a <__bad_interrupt>
   c:	46 c0       	rjmp	.+140    	; 0x9a <__bad_interrupt>
   e:	45 c0       	rjmp	.+138    	; 0x9a <__bad_interrupt>
  10:	44 c0       	rjmp	.+136    	; 0x9a <__bad_interrupt>
  12:	43 c0       	rjmp	.+134    	; 0x9a <__bad_interrupt>
  14:	42 c0       	rjmp	.+132    	; 0x9a <__bad_interrupt>
  16:	41 c0       	rjmp	.+130    	; 0x9a <__bad_interrupt>
  18:	40 c0       	rjmp	.+128    	; 0x9a <__bad_interrupt>
  1a:	3f c0       	rjmp	.+126    	; 0x9a <__bad_interrupt>
  1c:	3e c0       	rjmp	.+124    	; 0x9a <__bad_interrupt>

0000001e <usbDescriptorString0>:
  1e:	04 03 09 04                                         ....

00000022 <usbDescriptorStringDevice>:
  22:	16 03 55 00 53 00 42 00 74 00 69 00 6e 00 79 00     ..U.S.B.t.i.n.y.
  32:	53 00 50 00 49 00                                   S.P.I.

00000038 <usbDescriptorDevice>:
  38:	12 01 10 01 00 00 00 08 81 17 9f 0c 04 01 00 02     ................
  48:	00 01                                               ..

0000004a <usbDescriptorConfiguration>:
  4a:	09 02 19 00 01 01 00 80 64 09 04 00 00 01 ff 00     ........d.......
  5a:	00 00 07 05 81 03 08 00 0a 00                       ..........

00000064 <__ctors_end>:
  64:	11 24       	eor	r1, r1
  66:	1f be       	out	0x3f, r1	; 63
  68:	cf e5       	ldi	r28, 0x5F	; 95
  6a:	d1 e0       	ldi	r29, 0x01	; 1
  6c:	de bf       	out	0x3e, r29	; 62
  6e:	cd bf       	out	0x3d, r28	; 61

00000070 <__do_copy_data>:
  70:	10 e0       	ldi	r17, 0x00	; 0
  72:	a0 e6       	ldi	r26, 0x60	; 96
  74:	b0 e0       	ldi	r27, 0x00	; 0
  76:	ec ec       	ldi	r30, 0xCC	; 204
  78:	f9 e0       	ldi	r31, 0x09	; 9
  7a:	02 c0       	rjmp	.+4      	; 0x80 <__do_copy_data+0x10>
  7c:	05 90       	lpm	r0, Z+
  7e:	0d 92       	st	X+, r0
  80:	a4 36       	cpi	r26, 0x64	; 100
  82:	b1 07       	cpc	r27, r17
  84:	d9 f7       	brne	.-10     	; 0x7c <__do_copy_data+0xc>

00000086 <__do_clear_bss>:
  86:	10 e0       	ldi	r17, 0x00	; 0
  88:	a4 e6       	ldi	r26, 0x64	; 100
  8a:	b0 e0       	ldi	r27, 0x00	; 0
  8c:	01 c0       	rjmp	.+2      	; 0x90 <.do_clear_bss_start>

0000008e <.do_clear_bss_loop>:
  8e:	1d 92       	st	X+, r1

00000090 <.do_clear_bss_start>:
  90:	ab 3a       	cpi	r26, 0xAB	; 171
  92:	b1 07       	cpc	r27, r17
  94:	e1 f7       	brne	.-8      	; 0x8e <.do_clear_bss_loop>
  96:	60 d4       	rcall	.+2240   	; 0x958 <main>
  98:	97 c4       	rjmp	.+2350   	; 0x9c8 <_exit>

0000009a <__bad_interrupt>:
  9a:	b2 cf       	rjmp	.-156    	; 0x0 <__vectors>

0000009c <usbSetInterrupt>:
  9c:	1f 93       	push	r17
  9e:	16 2f       	mov	r17, r22
  a0:	20 91 80 00 	lds	r18, 0x0080
  a4:	24 ff       	sbrs	r18, 4
  a6:	07 c0       	rjmp	.+14     	; 0xb6 <usbSetInterrupt+0x1a>
  a8:	20 91 81 00 	lds	r18, 0x0081
  ac:	38 e8       	ldi	r19, 0x88	; 136
  ae:	23 27       	eor	r18, r19
  b0:	20 93 81 00 	sts	0x0081, r18
  b4:	03 c0       	rjmp	.+6      	; 0xbc <usbSetInterrupt+0x20>
  b6:	2a e5       	ldi	r18, 0x5A	; 90
  b8:	20 93 80 00 	sts	0x0080, r18
  bc:	dc 01       	movw	r26, r24
  be:	81 2f       	mov	r24, r17
  c0:	81 50       	subi	r24, 0x01	; 1
  c2:	90 e0       	ldi	r25, 0x00	; 0
  c4:	8d 57       	subi	r24, 0x7D	; 125
  c6:	9f 4f       	sbci	r25, 0xFF	; 255
  c8:	e2 e8       	ldi	r30, 0x82	; 130
  ca:	f0 e0       	ldi	r31, 0x00	; 0
  cc:	2d 91       	ld	r18, X+
  ce:	21 93       	st	Z+, r18
  d0:	e8 17       	cp	r30, r24
  d2:	f9 07       	cpc	r31, r25
  d4:	d9 f7       	brne	.-10     	; 0xcc <usbSetInterrupt+0x30>
  d6:	82 e8       	ldi	r24, 0x82	; 130
  d8:	90 e0       	ldi	r25, 0x00	; 0
  da:	61 2f       	mov	r22, r17
  dc:	4d d1       	rcall	.+666    	; 0x378 <usbCrc16Append>
  de:	1c 5f       	subi	r17, 0xFC	; 252
  e0:	10 93 80 00 	sts	0x0080, r17
  e4:	1f 91       	pop	r17
  e6:	08 95       	ret

000000e8 <usbPoll>:
  e8:	1f 93       	push	r17
  ea:	cf 93       	push	r28
  ec:	df 93       	push	r29
  ee:	60 91 91 00 	lds	r22, 0x0091
  f2:	63 50       	subi	r22, 0x03	; 3
  f4:	67 fd       	sbrc	r22, 7
  f6:	a7 c0       	rjmp	.+334    	; 0x246 <__stack+0xe7>
  f8:	80 91 8e 00 	lds	r24, 0x008E
  fc:	cc e0       	ldi	r28, 0x0C	; 12
  fe:	d0 e0       	ldi	r29, 0x00	; 0
 100:	c8 1b       	sub	r28, r24
 102:	d1 09       	sbc	r29, r1
 104:	cb 56       	subi	r28, 0x6B	; 107
 106:	df 4f       	sbci	r29, 0xFF	; 255
 108:	80 91 8d 00 	lds	r24, 0x008D
 10c:	8d 32       	cpi	r24, 0x2D	; 45
 10e:	09 f0       	breq	.+2      	; 0x112 <usbPoll+0x2a>
 110:	88 c0       	rjmp	.+272    	; 0x222 <__stack+0xc3>
 112:	68 30       	cpi	r22, 0x08	; 8
 114:	09 f0       	breq	.+2      	; 0x118 <usbPoll+0x30>
 116:	95 c0       	rjmp	.+298    	; 0x242 <__stack+0xe3>
 118:	83 ec       	ldi	r24, 0xC3	; 195
 11a:	80 93 75 00 	sts	0x0075, r24
 11e:	8a e5       	ldi	r24, 0x5A	; 90
 120:	80 93 60 00 	sts	0x0060, r24
 124:	10 92 64 00 	sts	0x0064, r1
 128:	88 81       	ld	r24, Y
 12a:	80 76       	andi	r24, 0x60	; 96
 12c:	31 f0       	breq	.+12     	; 0x13a <usbPoll+0x52>
 12e:	ce 01       	movw	r24, r28
 130:	58 d3       	rcall	.+1712   	; 0x7e2 <usbFunctionSetup>
 132:	8f 3f       	cpi	r24, 0xFF	; 255
 134:	09 f4       	brne	.+2      	; 0x138 <usbPoll+0x50>
 136:	64 c0       	rjmp	.+200    	; 0x200 <__stack+0xa1>
 138:	6a c0       	rjmp	.+212    	; 0x20e <__stack+0xaf>
 13a:	9a 81       	ldd	r25, Y+2	; 0x02
 13c:	10 92 7e 00 	sts	0x007E, r1
 140:	89 81       	ldd	r24, Y+1	; 0x01
 142:	88 23       	and	r24, r24
 144:	31 f4       	brne	.+12     	; 0x152 <usbPoll+0x6a>
 146:	10 92 7f 00 	sts	0x007F, r1
 14a:	2e e7       	ldi	r18, 0x7E	; 126
 14c:	30 e0       	ldi	r19, 0x00	; 0
 14e:	82 e0       	ldi	r24, 0x02	; 2
 150:	52 c0       	rjmp	.+164    	; 0x1f6 <__stack+0x97>
 152:	85 30       	cpi	r24, 0x05	; 5
 154:	19 f4       	brne	.+6      	; 0x15c <usbPoll+0x74>
 156:	90 93 92 00 	sts	0x0092, r25
 15a:	4a c0       	rjmp	.+148    	; 0x1f0 <__stack+0x91>
 15c:	86 30       	cpi	r24, 0x06	; 6
 15e:	91 f5       	brne	.+100    	; 0x1c4 <__stack+0x65>
 160:	8b 81       	ldd	r24, Y+3	; 0x03
 162:	81 30       	cpi	r24, 0x01	; 1
 164:	41 f4       	brne	.+16     	; 0x176 <__stack+0x17>
 166:	88 e3       	ldi	r24, 0x38	; 56
 168:	90 e0       	ldi	r25, 0x00	; 0
 16a:	90 93 90 00 	sts	0x0090, r25
 16e:	80 93 8f 00 	sts	0x008F, r24
 172:	82 e1       	ldi	r24, 0x12	; 18
 174:	23 c0       	rjmp	.+70     	; 0x1bc <__stack+0x5d>
 176:	82 30       	cpi	r24, 0x02	; 2
 178:	41 f4       	brne	.+16     	; 0x18a <__stack+0x2b>
 17a:	8a e4       	ldi	r24, 0x4A	; 74
 17c:	90 e0       	ldi	r25, 0x00	; 0
 17e:	90 93 90 00 	sts	0x0090, r25
 182:	80 93 8f 00 	sts	0x008F, r24
 186:	89 e1       	ldi	r24, 0x19	; 25
 188:	19 c0       	rjmp	.+50     	; 0x1bc <__stack+0x5d>
 18a:	83 30       	cpi	r24, 0x03	; 3
 18c:	b1 f4       	brne	.+44     	; 0x1ba <__stack+0x5b>
 18e:	99 23       	and	r25, r25
 190:	41 f4       	brne	.+16     	; 0x1a2 <__stack+0x43>
 192:	8e e1       	ldi	r24, 0x1E	; 30
 194:	90 e0       	ldi	r25, 0x00	; 0
 196:	90 93 90 00 	sts	0x0090, r25
 19a:	80 93 8f 00 	sts	0x008F, r24
 19e:	84 e0       	ldi	r24, 0x04	; 4
 1a0:	0d c0       	rjmp	.+26     	; 0x1bc <__stack+0x5d>
 1a2:	91 30       	cpi	r25, 0x01	; 1
 1a4:	51 f0       	breq	.+20     	; 0x1ba <__stack+0x5b>
 1a6:	92 30       	cpi	r25, 0x02	; 2
 1a8:	41 f4       	brne	.+16     	; 0x1ba <__stack+0x5b>
 1aa:	82 e2       	ldi	r24, 0x22	; 34
 1ac:	90 e0       	ldi	r25, 0x00	; 0
 1ae:	90 93 90 00 	sts	0x0090, r25
 1b2:	80 93 8f 00 	sts	0x008F, r24
 1b6:	86 e1       	ldi	r24, 0x16	; 22
 1b8:	01 c0       	rjmp	.+2      	; 0x1bc <__stack+0x5d>
 1ba:	80 e0       	ldi	r24, 0x00	; 0
 1bc:	90 e4       	ldi	r25, 0x40	; 64
 1be:	90 93 64 00 	sts	0x0064, r25
 1c2:	25 c0       	rjmp	.+74     	; 0x20e <__stack+0xaf>
 1c4:	88 30       	cpi	r24, 0x08	; 8
 1c6:	69 f0       	breq	.+26     	; 0x1e2 <__stack+0x83>
 1c8:	89 30       	cpi	r24, 0x09	; 9
 1ca:	19 f4       	brne	.+6      	; 0x1d2 <__stack+0x73>
 1cc:	90 93 94 00 	sts	0x0094, r25
 1d0:	0f c0       	rjmp	.+30     	; 0x1f0 <__stack+0x91>
 1d2:	8a 30       	cpi	r24, 0x0A	; 10
 1d4:	49 f0       	breq	.+18     	; 0x1e8 <__stack+0x89>
 1d6:	8b 30       	cpi	r24, 0x0B	; 11
 1d8:	59 f4       	brne	.+22     	; 0x1f0 <__stack+0x91>
 1da:	8b e4       	ldi	r24, 0x4B	; 75
 1dc:	80 93 81 00 	sts	0x0081, r24
 1e0:	07 c0       	rjmp	.+14     	; 0x1f0 <__stack+0x91>
 1e2:	24 e9       	ldi	r18, 0x94	; 148
 1e4:	30 e0       	ldi	r19, 0x00	; 0
 1e6:	02 c0       	rjmp	.+4      	; 0x1ec <__stack+0x8d>
 1e8:	2e e7       	ldi	r18, 0x7E	; 126
 1ea:	30 e0       	ldi	r19, 0x00	; 0
 1ec:	81 e0       	ldi	r24, 0x01	; 1
 1ee:	03 c0       	rjmp	.+6      	; 0x1f6 <__stack+0x97>
 1f0:	2e e7       	ldi	r18, 0x7E	; 126
 1f2:	30 e0       	ldi	r19, 0x00	; 0
 1f4:	80 e0       	ldi	r24, 0x00	; 0
 1f6:	30 93 90 00 	sts	0x0090, r19
 1fa:	20 93 8f 00 	sts	0x008F, r18
 1fe:	07 c0       	rjmp	.+14     	; 0x20e <__stack+0xaf>
 200:	98 81       	ld	r25, Y
 202:	97 fd       	sbrc	r25, 7
 204:	8e 81       	ldd	r24, Y+6	; 0x06
 206:	90 e8       	ldi	r25, 0x80	; 128
 208:	90 93 64 00 	sts	0x0064, r25
 20c:	07 c0       	rjmp	.+14     	; 0x21c <__stack+0xbd>
 20e:	9f 81       	ldd	r25, Y+7	; 0x07
 210:	99 23       	and	r25, r25
 212:	21 f4       	brne	.+8      	; 0x21c <__stack+0xbd>
 214:	9e 81       	ldd	r25, Y+6	; 0x06
 216:	98 17       	cp	r25, r24
 218:	08 f4       	brcc	.+2      	; 0x21c <__stack+0xbd>
 21a:	89 2f       	mov	r24, r25
 21c:	80 93 61 00 	sts	0x0061, r24
 220:	10 c0       	rjmp	.+32     	; 0x242 <__stack+0xe3>
 222:	80 91 64 00 	lds	r24, 0x0064
 226:	87 ff       	sbrs	r24, 7
 228:	0c c0       	rjmp	.+24     	; 0x242 <__stack+0xe3>
 22a:	ce 01       	movw	r24, r28
 22c:	8d d2       	rcall	.+1306   	; 0x748 <usbFunctionWrite>
 22e:	8f 3f       	cpi	r24, 0xFF	; 255
 230:	21 f4       	brne	.+8      	; 0x23a <__stack+0xdb>
 232:	8e e1       	ldi	r24, 0x1E	; 30
 234:	80 93 60 00 	sts	0x0060, r24
 238:	04 c0       	rjmp	.+8      	; 0x242 <__stack+0xe3>
 23a:	88 23       	and	r24, r24
 23c:	11 f0       	breq	.+4      	; 0x242 <__stack+0xe3>
 23e:	10 92 61 00 	sts	0x0061, r1
 242:	10 92 91 00 	sts	0x0091, r1
 246:	80 91 60 00 	lds	r24, 0x0060
 24a:	84 ff       	sbrs	r24, 4
 24c:	5b c0       	rjmp	.+182    	; 0x304 <__stack+0x1a5>
 24e:	80 91 61 00 	lds	r24, 0x0061
 252:	8f 3f       	cpi	r24, 0xFF	; 255
 254:	09 f4       	brne	.+2      	; 0x258 <__stack+0xf9>
 256:	56 c0       	rjmp	.+172    	; 0x304 <__stack+0x1a5>
 258:	18 2f       	mov	r17, r24
 25a:	89 30       	cpi	r24, 0x09	; 9
 25c:	08 f0       	brcs	.+2      	; 0x260 <__stack+0x101>
 25e:	18 e0       	ldi	r17, 0x08	; 8
 260:	81 1b       	sub	r24, r17
 262:	80 93 61 00 	sts	0x0061, r24
 266:	80 91 75 00 	lds	r24, 0x0075
 26a:	98 e8       	ldi	r25, 0x88	; 136
 26c:	89 27       	eor	r24, r25
 26e:	80 93 75 00 	sts	0x0075, r24
 272:	11 23       	and	r17, r17
 274:	b1 f1       	breq	.+108    	; 0x2e2 <__stack+0x183>
 276:	80 91 64 00 	lds	r24, 0x0064
 27a:	87 ff       	sbrs	r24, 7
 27c:	08 c0       	rjmp	.+16     	; 0x28e <__stack+0x12f>
 27e:	86 e7       	ldi	r24, 0x76	; 118
 280:	90 e0       	ldi	r25, 0x00	; 0
 282:	61 2f       	mov	r22, r17
 284:	40 d2       	rcall	.+1152   	; 0x706 <usbFunctionRead>
 286:	18 2f       	mov	r17, r24
 288:	89 30       	cpi	r24, 0x09	; 9
 28a:	b0 f5       	brcc	.+108    	; 0x2f8 <__stack+0x199>
 28c:	2a c0       	rjmp	.+84     	; 0x2e2 <__stack+0x183>
 28e:	20 91 8f 00 	lds	r18, 0x008F
 292:	30 91 90 00 	lds	r19, 0x0090
 296:	41 2f       	mov	r20, r17
 298:	41 50       	subi	r20, 0x01	; 1
 29a:	86 ff       	sbrs	r24, 6
 29c:	0e c0       	rjmp	.+28     	; 0x2ba <__stack+0x15b>
 29e:	50 e0       	ldi	r21, 0x00	; 0
 2a0:	ea 01       	movw	r28, r20
 2a2:	c9 58       	subi	r28, 0x89	; 137
 2a4:	df 4f       	sbci	r29, 0xFF	; 255
 2a6:	f9 01       	movw	r30, r18
 2a8:	a6 e7       	ldi	r26, 0x76	; 118
 2aa:	b0 e0       	ldi	r27, 0x00	; 0
 2ac:	84 91       	lpm	r24, Z+
 2ae:	8d 93       	st	X+, r24
 2b0:	31 96       	adiw	r30, 0x01	; 1
 2b2:	ac 17       	cp	r26, r28
 2b4:	bd 07       	cpc	r27, r29
 2b6:	d1 f7       	brne	.-12     	; 0x2ac <__stack+0x14d>
 2b8:	0c c0       	rjmp	.+24     	; 0x2d2 <__stack+0x173>
 2ba:	d9 01       	movw	r26, r18
 2bc:	50 e0       	ldi	r21, 0x00	; 0
 2be:	ca 01       	movw	r24, r20
 2c0:	89 58       	subi	r24, 0x89	; 137
 2c2:	9f 4f       	sbci	r25, 0xFF	; 255
 2c4:	e6 e7       	ldi	r30, 0x76	; 118
 2c6:	f0 e0       	ldi	r31, 0x00	; 0
 2c8:	6d 91       	ld	r22, X+
 2ca:	61 93       	st	Z+, r22
 2cc:	e8 17       	cp	r30, r24
 2ce:	f9 07       	cpc	r31, r25
 2d0:	d9 f7       	brne	.-10     	; 0x2c8 <__stack+0x169>
 2d2:	4f 5f       	subi	r20, 0xFF	; 255
 2d4:	5f 4f       	sbci	r21, 0xFF	; 255
 2d6:	42 0f       	add	r20, r18
 2d8:	53 1f       	adc	r21, r19
 2da:	50 93 90 00 	sts	0x0090, r21
 2de:	40 93 8f 00 	sts	0x008F, r20
 2e2:	86 e7       	ldi	r24, 0x76	; 118
 2e4:	90 e0       	ldi	r25, 0x00	; 0
 2e6:	61 2f       	mov	r22, r17
 2e8:	47 d0       	rcall	.+142    	; 0x378 <usbCrc16Append>
 2ea:	1c 5f       	subi	r17, 0xFC	; 252
 2ec:	1c 30       	cpi	r17, 0x0C	; 12
 2ee:	41 f0       	breq	.+16     	; 0x300 <__stack+0x1a1>
 2f0:	8f ef       	ldi	r24, 0xFF	; 255
 2f2:	80 93 61 00 	sts	0x0061, r24
 2f6:	04 c0       	rjmp	.+8      	; 0x300 <__stack+0x1a1>
 2f8:	8f ef       	ldi	r24, 0xFF	; 255
 2fa:	80 93 61 00 	sts	0x0061, r24
 2fe:	1e e1       	ldi	r17, 0x1E	; 30
 300:	10 93 60 00 	sts	0x0060, r17
 304:	84 e1       	ldi	r24, 0x14	; 20
 306:	96 b3       	in	r25, 0x16	; 22
 308:	98 71       	andi	r25, 0x18	; 24
 30a:	31 f4       	brne	.+12     	; 0x318 <__stack+0x1b9>
 30c:	81 50       	subi	r24, 0x01	; 1
 30e:	d9 f7       	brne	.-10     	; 0x306 <__stack+0x1a7>
 310:	10 92 92 00 	sts	0x0092, r1
 314:	10 92 8c 00 	sts	0x008C, r1
 318:	11 e0       	ldi	r17, 0x01	; 1
 31a:	81 11       	cpse	r24, r1
 31c:	10 e0       	ldi	r17, 0x00	; 0
 31e:	80 91 65 00 	lds	r24, 0x0065
 322:	81 17       	cp	r24, r17
 324:	29 f0       	breq	.+10     	; 0x330 <__stack+0x1d1>
 326:	11 23       	and	r17, r17
 328:	09 f4       	brne	.+2      	; 0x32c <__stack+0x1cd>
 32a:	d3 d2       	rcall	.+1446   	; 0x8d2 <usbEventResetReady>
 32c:	10 93 65 00 	sts	0x0065, r17
 330:	df 91       	pop	r29
 332:	cf 91       	pop	r28
 334:	1f 91       	pop	r17
 336:	08 95       	ret

00000338 <usbInit>:
 338:	ab 9a       	sbi	0x15, 3	; 21
 33a:	8b b7       	in	r24, 0x3b	; 59
 33c:	80 62       	ori	r24, 0x20	; 32
 33e:	8b bf       	out	0x3b, r24	; 59
 340:	8b e4       	ldi	r24, 0x4B	; 75
 342:	80 93 81 00 	sts	0x0081, r24
 346:	8a e5       	ldi	r24, 0x5A	; 90
 348:	80 93 80 00 	sts	0x0080, r24
 34c:	08 95       	ret

0000034e <usbCrc16>:
 34e:	a8 2f       	mov	r26, r24
 350:	b9 2f       	mov	r27, r25
 352:	80 e0       	ldi	r24, 0x00	; 0
 354:	90 e0       	ldi	r25, 0x00	; 0
 356:	41 e0       	ldi	r20, 0x01	; 1
 358:	50 ea       	ldi	r21, 0xA0	; 160
 35a:	60 95       	com	r22
 35c:	30 e0       	ldi	r19, 0x00	; 0
 35e:	09 c0       	rjmp	.+18     	; 0x372 <usbCrcLoopEntry>

00000360 <usbCrcByteLoop>:
 360:	2d 91       	ld	r18, X+
 362:	82 27       	eor	r24, r18

00000364 <usbCrcBitLoop>:
 364:	97 95       	ror	r25
 366:	87 95       	ror	r24
 368:	10 f0       	brcs	.+4      	; 0x36e <usbCrcNoXor>
 36a:	84 27       	eor	r24, r20
 36c:	95 27       	eor	r25, r21

0000036e <usbCrcNoXor>:
 36e:	30 5e       	subi	r19, 0xE0	; 224
 370:	c8 f3       	brcs	.-14     	; 0x364 <usbCrcBitLoop>

00000372 <usbCrcLoopEntry>:
 372:	6f 5f       	subi	r22, 0xFF	; 255
 374:	a8 f3       	brcs	.-22     	; 0x360 <usbCrcByteLoop>

00000376 <usbCrcReady>:
 376:	08 95       	ret

00000378 <usbCrc16Append>:
 378:	ea df       	rcall	.-44     	; 0x34e <usbCrc16>
 37a:	8d 93       	st	X+, r24
 37c:	9d 93       	st	X+, r25
 37e:	08 95       	ret

00000380 <usbMeasureFrameLength>:
 380:	a6 e0       	ldi	r26, 0x06	; 6
 382:	88 27       	eor	r24, r24
 384:	99 27       	eor	r25, r25

00000386 <usbMFTime16>:
 386:	aa 95       	dec	r26
 388:	69 f0       	breq	.+26     	; 0x3a4 <usbMFTimeout>

0000038a <usbMFWaitStrobe>:
 38a:	01 97       	sbiw	r24, 0x01	; 1
 38c:	e1 f3       	breq	.-8      	; 0x386 <usbMFTime16>
 38e:	b4 99       	sbic	0x16, 4	; 22
 390:	fc cf       	rjmp	.-8      	; 0x38a <usbMFWaitStrobe>

00000392 <usbMFWaitIdle>:
 392:	b4 9b       	sbis	0x16, 4	; 22
 394:	fe cf       	rjmp	.-4      	; 0x392 <usbMFWaitIdle>
 396:	81 e0       	ldi	r24, 0x01	; 1
 398:	99 27       	eor	r25, r25

0000039a <usbMFWaitLoop>:
 39a:	a6 b3       	in	r26, 0x16	; 22
 39c:	01 96       	adiw	r24, 0x01	; 1
 39e:	11 f0       	breq	.+4      	; 0x3a4 <usbMFTimeout>
 3a0:	a8 71       	andi	r26, 0x18	; 24
 3a2:	d9 f7       	brne	.-10     	; 0x39a <usbMFWaitLoop>

000003a4 <usbMFTimeout>:
 3a4:	08 95       	ret

000003a6 <__vector_2>:
 3a6:	cf 93       	push	r28
 3a8:	cf b7       	in	r28, 0x3f	; 63
 3aa:	cf 93       	push	r28

000003ac <waitForJ>:
 3ac:	c3 95       	inc	r28
 3ae:	b4 9b       	sbis	0x16, 4	; 22
 3b0:	e9 f7       	brne	.-6      	; 0x3ac <waitForJ>

000003b2 <waitForK>:
 3b2:	b4 9b       	sbis	0x16, 4	; 22
 3b4:	0b c0       	rjmp	.+22     	; 0x3cc <foundK>
 3b6:	b4 9b       	sbis	0x16, 4	; 22
 3b8:	09 c0       	rjmp	.+18     	; 0x3cc <foundK>
 3ba:	b4 9b       	sbis	0x16, 4	; 22
 3bc:	07 c0       	rjmp	.+14     	; 0x3cc <foundK>
 3be:	b4 9b       	sbis	0x16, 4	; 22
 3c0:	05 c0       	rjmp	.+10     	; 0x3cc <foundK>
 3c2:	b4 9b       	sbis	0x16, 4	; 22
 3c4:	03 c0       	rjmp	.+6      	; 0x3cc <foundK>
 3c6:	b4 9b       	sbis	0x16, 4	; 22
 3c8:	01 c0       	rjmp	.+2      	; 0x3cc <foundK>
 3ca:	d5 c0       	rjmp	.+426    	; 0x576 <sofError>

000003cc <foundK>:
 3cc:	0f 92       	push	r0
 3ce:	df 93       	push	r29
 3d0:	c0 91 8e 00 	lds	r28, 0x008E
 3d4:	dd 27       	eor	r29, r29
 3d6:	cb 56       	subi	r28, 0x6B	; 107
 3d8:	df 4f       	sbci	r29, 0xFF	; 255
 3da:	01 2e       	mov	r0, r17
 3dc:	b4 9b       	sbis	0x16, 4	; 22
 3de:	03 c0       	rjmp	.+6      	; 0x3e6 <haveTwoBitsK>
 3e0:	df 91       	pop	r29
 3e2:	0f 90       	pop	r0
 3e4:	e6 cf       	rjmp	.-52     	; 0x3b2 <waitForK>

000003e6 <haveTwoBitsK>:
 3e6:	2f 93       	push	r18
 3e8:	0f 93       	push	r16
 3ea:	1f 93       	push	r17
 3ec:	4f 93       	push	r20
 3ee:	2f ef       	ldi	r18, 0xFF	; 255
 3f0:	4f 6f       	ori	r20, 0xFF	; 255
 3f2:	06 b3       	in	r16, 0x16	; 22
 3f4:	04 fb       	bst	r16, 4
 3f6:	20 f9       	bld	r18, 0
 3f8:	5f 93       	push	r21
 3fa:	3f 93       	push	r19
 3fc:	50 e0       	ldi	r21, 0x00	; 0
 3fe:	3b e0       	ldi	r19, 0x0B	; 11
 400:	65 c0       	rjmp	.+202    	; 0x4cc <rxbit1>

00000402 <continueWithBit5>:
 402:	16 b3       	in	r17, 0x16	; 22
 404:	01 26       	eor	r0, r17
 406:	50 29       	or	r21, r0
 408:	54 fd       	sbrc	r21, 4
 40a:	c8 95       	lpm
 40c:	56 b3       	in	r21, 0x16	; 22
 40e:	01 27       	eor	r16, r17
 410:	04 fb       	bst	r16, 4
 412:	25 f9       	bld	r18, 5
 414:	2f 73       	andi	r18, 0x3F	; 63
 416:	06 b3       	in	r16, 0x16	; 22
 418:	b1 f0       	breq	.+44     	; 0x446 <unstuff5>
 41a:	50 27       	eor	r21, r16
 41c:	10 27       	eor	r17, r16
 41e:	14 fb       	bst	r17, 4
 420:	26 f9       	bld	r18, 6

00000422 <didUnstuff6>:
 422:	06 b2       	in	r0, 0x16	; 22
 424:	22 30       	cpi	r18, 0x02	; 2
 426:	f0 f0       	brcs	.+60     	; 0x464 <unstuff6>

00000428 <didUnstuff5>:
 428:	00 c0       	rjmp	.+0      	; 0x42a <didUnstuff5+0x2>
 42a:	16 b3       	in	r17, 0x16	; 22
 42c:	01 27       	eor	r16, r17
 42e:	04 fb       	bst	r16, 4
 430:	27 f9       	bld	r18, 7

00000432 <didUnstuff7>:
 432:	01 26       	eor	r0, r17
 434:	50 29       	or	r21, r0
 436:	06 b2       	in	r0, 0x16	; 22
 438:	24 30       	cpi	r18, 0x04	; 4
 43a:	e8 f5       	brcc	.+122    	; 0x4b6 <rxLoop>

0000043c <unstuff7>:
 43c:	4f 77       	andi	r20, 0x7F	; 127
 43e:	20 68       	ori	r18, 0x80	; 128
 440:	16 b3       	in	r17, 0x16	; 22
 442:	00 00       	nop
 444:	f6 cf       	rjmp	.-20     	; 0x432 <didUnstuff7>

00000446 <unstuff5>:
 446:	50 27       	eor	r21, r16
 448:	4f 7d       	andi	r20, 0xDF	; 223
 44a:	20 62       	ori	r18, 0x20	; 32
 44c:	06 b2       	in	r0, 0x16	; 22
 44e:	10 2f       	mov	r17, r16
 450:	00 00       	nop
 452:	00 c0       	rjmp	.+0      	; 0x454 <unstuff5+0xe>
 454:	06 b3       	in	r16, 0x16	; 22
 456:	00 26       	eor	r0, r16
 458:	50 29       	or	r21, r0
 45a:	10 27       	eor	r17, r16
 45c:	14 fb       	bst	r17, 4
 45e:	26 f9       	bld	r18, 6
 460:	06 b2       	in	r0, 0x16	; 22
 462:	e2 cf       	rjmp	.-60     	; 0x428 <didUnstuff5>

00000464 <unstuff6>:
 464:	4f 7b       	andi	r20, 0xBF	; 191
 466:	06 b3       	in	r16, 0x16	; 22
 468:	20 64       	ori	r18, 0x40	; 64
 46a:	00 c0       	rjmp	.+0      	; 0x46c <unstuff6+0x8>
 46c:	da cf       	rjmp	.-76     	; 0x422 <didUnstuff6>

0000046e <unstuff0>:
 46e:	01 26       	eor	r0, r17
 470:	50 29       	or	r21, r0
 472:	18 71       	andi	r17, 0x18	; 24
 474:	06 b2       	in	r0, 0x16	; 22
 476:	69 f1       	breq	.+90     	; 0x4d2 <didUnstuff0>
 478:	4e 7f       	andi	r20, 0xFE	; 254
 47a:	21 60       	ori	r18, 0x01	; 1
 47c:	01 2f       	mov	r16, r17
 47e:	16 b3       	in	r17, 0x16	; 22
 480:	28 c0       	rjmp	.+80     	; 0x4d2 <didUnstuff0>

00000482 <unstuff1>:
 482:	00 26       	eor	r0, r16
 484:	50 29       	or	r21, r0
 486:	4d 7f       	andi	r20, 0xFD	; 253
 488:	06 b2       	in	r0, 0x16	; 22
 48a:	22 60       	ori	r18, 0x02	; 2
 48c:	10 2f       	mov	r17, r16
 48e:	29 c0       	rjmp	.+82     	; 0x4e2 <didUnstuff1>

00000490 <unstuff2>:
 490:	01 26       	eor	r0, r17
 492:	50 29       	or	r21, r0
 494:	4b 7f       	andi	r20, 0xFB	; 251
 496:	06 b2       	in	r0, 0x16	; 22
 498:	24 60       	ori	r18, 0x04	; 4
 49a:	01 2f       	mov	r16, r17
 49c:	2d c0       	rjmp	.+90     	; 0x4f8 <didUnstuff2>

0000049e <unstuff3>:
 49e:	16 b3       	in	r17, 0x16	; 22
 4a0:	01 26       	eor	r0, r17
 4a2:	50 29       	or	r21, r0
 4a4:	47 7f       	andi	r20, 0xF7	; 247
 4a6:	28 60       	ori	r18, 0x08	; 8
 4a8:	00 00       	nop
 4aa:	06 b2       	in	r0, 0x16	; 22
 4ac:	2e c0       	rjmp	.+92     	; 0x50a <didUnstuff3>

000004ae <unstuff4>:
 4ae:	4f 7e       	andi	r20, 0xEF	; 239
 4b0:	06 b3       	in	r16, 0x16	; 22
 4b2:	20 61       	ori	r18, 0x10	; 16
 4b4:	30 c0       	rjmp	.+96     	; 0x516 <didUnstuff4>

000004b6 <rxLoop>:
 4b6:	42 27       	eor	r20, r18
 4b8:	06 b3       	in	r16, 0x16	; 22
 4ba:	49 93       	st	Y+, r20
 4bc:	00 26       	eor	r0, r16
 4be:	50 29       	or	r21, r0
 4c0:	10 27       	eor	r17, r16
 4c2:	06 b2       	in	r0, 0x16	; 22
 4c4:	4f ef       	ldi	r20, 0xFF	; 255
 4c6:	14 fb       	bst	r17, 4
 4c8:	20 f9       	bld	r18, 0
 4ca:	29 7f       	andi	r18, 0xF9	; 249

000004cc <rxbit1>:
 4cc:	16 b3       	in	r17, 0x16	; 22
 4ce:	79 f2       	breq	.-98     	; 0x46e <unstuff0>
 4d0:	18 71       	andi	r17, 0x18	; 24

000004d2 <didUnstuff0>:
 4d2:	59 f1       	breq	.+86     	; 0x52a <se0>
 4d4:	01 26       	eor	r0, r17
 4d6:	50 29       	or	r21, r0
 4d8:	06 b2       	in	r0, 0x16	; 22
 4da:	01 27       	eor	r16, r17
 4dc:	04 fb       	bst	r16, 4
 4de:	21 f9       	bld	r18, 1
 4e0:	23 7f       	andi	r18, 0xF3	; 243

000004e2 <didUnstuff1>:
 4e2:	06 b3       	in	r16, 0x16	; 22
 4e4:	71 f2       	breq	.-100    	; 0x482 <unstuff1>
 4e6:	00 26       	eor	r0, r16
 4e8:	50 29       	or	r21, r0
 4ea:	31 50       	subi	r19, 0x01	; 1
 4ec:	d0 f0       	brcs	.+52     	; 0x522 <overflow>
 4ee:	06 b2       	in	r0, 0x16	; 22
 4f0:	10 27       	eor	r17, r16
 4f2:	14 fb       	bst	r17, 4
 4f4:	22 f9       	bld	r18, 2
 4f6:	27 7e       	andi	r18, 0xE7	; 231

000004f8 <didUnstuff2>:
 4f8:	16 b3       	in	r17, 0x16	; 22
 4fa:	51 f2       	breq	.-108    	; 0x490 <unstuff2>
 4fc:	01 26       	eor	r0, r17
 4fe:	50 29       	or	r21, r0
 500:	01 27       	eor	r16, r17
 502:	04 fb       	bst	r16, 4
 504:	06 b2       	in	r0, 0x16	; 22
 506:	23 f9       	bld	r18, 3
 508:	2f 7c       	andi	r18, 0xCF	; 207

0000050a <didUnstuff3>:
 50a:	49 f2       	breq	.-110    	; 0x49e <unstuff3>
 50c:	00 00       	nop
 50e:	06 b3       	in	r16, 0x16	; 22
 510:	10 27       	eor	r17, r16
 512:	14 fb       	bst	r17, 4
 514:	24 f9       	bld	r18, 4

00000516 <didUnstuff4>:
 516:	00 26       	eor	r0, r16
 518:	50 29       	or	r21, r0
 51a:	06 b2       	in	r0, 0x16	; 22
 51c:	2f 79       	andi	r18, 0x9F	; 159
 51e:	39 f2       	breq	.-114    	; 0x4ae <unstuff4>
 520:	70 cf       	rjmp	.-288    	; 0x402 <continueWithBit5>

00000522 <overflow>:
 522:	10 e2       	ldi	r17, 0x20	; 32
 524:	1a bf       	out	0x3a, r17	; 58

00000526 <ignorePacket>:
 526:	00 27       	eor	r16, r16
 528:	19 c0       	rjmp	.+50     	; 0x55c <handleSetupOrOut>

0000052a <se0>:
 52a:	3b 50       	subi	r19, 0x0B	; 11
 52c:	31 95       	neg	r19
 52e:	c3 1b       	sub	r28, r19
 530:	d0 40       	sbci	r29, 0x00	; 0
 532:	10 e2       	ldi	r17, 0x20	; 32
 534:	1a bf       	out	0x3a, r17	; 58
 536:	08 81       	ld	r16, Y
 538:	03 3c       	cpi	r16, 0xC3	; 195
 53a:	09 f1       	breq	.+66     	; 0x57e <handleData>
 53c:	0b 34       	cpi	r16, 0x4B	; 75
 53e:	f9 f0       	breq	.+62     	; 0x57e <handleData>
 540:	20 91 8c 00 	lds	r18, 0x008C
 544:	19 81       	ldd	r17, Y+1	; 0x01
 546:	11 0f       	add	r17, r17
 548:	12 13       	cpse	r17, r18
 54a:	ed cf       	rjmp	.-38     	; 0x526 <ignorePacket>
 54c:	4a 81       	ldd	r20, Y+2	; 0x02
 54e:	44 1f       	adc	r20, r20
 550:	09 36       	cpi	r16, 0x69	; 105
 552:	51 f1       	breq	.+84     	; 0x5a8 <handleIn>
 554:	0d 32       	cpi	r16, 0x2D	; 45
 556:	11 f0       	breq	.+4      	; 0x55c <handleSetupOrOut>
 558:	01 3e       	cpi	r16, 0xE1	; 225
 55a:	29 f7       	brne	.-54     	; 0x526 <ignorePacket>

0000055c <handleSetupOrOut>:
 55c:	00 93 93 00 	sts	0x0093, r16

00000560 <doReturn>:
 560:	3f 91       	pop	r19
 562:	5f 91       	pop	r21
 564:	4f 91       	pop	r20
 566:	1f 91       	pop	r17
 568:	0f 91       	pop	r16
 56a:	2f 91       	pop	r18
 56c:	df 91       	pop	r29
 56e:	0f 90       	pop	r0
 570:	ca b7       	in	r28, 0x3a	; 58
 572:	c5 fd       	sbrc	r28, 5
 574:	1b cf       	rjmp	.-458    	; 0x3ac <waitForJ>

00000576 <sofError>:
 576:	cf 91       	pop	r28
 578:	cf bf       	out	0x3f, r28	; 63
 57a:	cf 91       	pop	r28
 57c:	18 95       	reti

0000057e <handleData>:
 57e:	20 91 93 00 	lds	r18, 0x0093
 582:	22 23       	and	r18, r18
 584:	69 f3       	breq	.-38     	; 0x560 <doReturn>
 586:	10 91 91 00 	lds	r17, 0x0091
 58a:	11 23       	and	r17, r17
 58c:	79 f5       	brne	.+94     	; 0x5ec <sendNakAndReti>
 58e:	34 30       	cpi	r19, 0x04	; 4
 590:	7a f1       	brmi	.+94     	; 0x5f0 <sendAckAndReti>
 592:	30 93 91 00 	sts	0x0091, r19
 596:	20 93 8d 00 	sts	0x008D, r18
 59a:	10 91 8e 00 	lds	r17, 0x008E
 59e:	3b e0       	ldi	r19, 0x0B	; 11
 5a0:	31 1b       	sub	r19, r17
 5a2:	30 93 8e 00 	sts	0x008E, r19
 5a6:	24 c0       	rjmp	.+72     	; 0x5f0 <sendAckAndReti>

000005a8 <handleIn>:
 5a8:	00 91 91 00 	lds	r16, 0x0091
 5ac:	01 30       	cpi	r16, 0x01	; 1
 5ae:	f4 f4       	brge	.+60     	; 0x5ec <sendNakAndReti>
 5b0:	0a e5       	ldi	r16, 0x5A	; 90
 5b2:	4f 70       	andi	r20, 0x0F	; 15
 5b4:	49 f4       	brne	.+18     	; 0x5c8 <handleIn1>
 5b6:	30 91 60 00 	lds	r19, 0x0060
 5ba:	34 fd       	sbrc	r19, 4
 5bc:	1a c0       	rjmp	.+52     	; 0x5f2 <sendCntAndReti>
 5be:	00 93 60 00 	sts	0x0060, r16
 5c2:	c5 e7       	ldi	r28, 0x75	; 117
 5c4:	d0 e0       	ldi	r29, 0x00	; 0
 5c6:	19 c0       	rjmp	.+50     	; 0x5fa <usbSendAndReti>

000005c8 <handleIn1>:
 5c8:	30 91 80 00 	lds	r19, 0x0080
 5cc:	34 fd       	sbrc	r19, 4
 5ce:	11 c0       	rjmp	.+34     	; 0x5f2 <sendCntAndReti>
 5d0:	00 93 80 00 	sts	0x0080, r16
 5d4:	c1 e8       	ldi	r28, 0x81	; 129
 5d6:	d0 e0       	ldi	r29, 0x00	; 0
 5d8:	10 c0       	rjmp	.+32     	; 0x5fa <usbSendAndReti>

000005da <bitstuff7>:
 5da:	05 27       	eor	r16, r21
 5dc:	10 e0       	ldi	r17, 0x00	; 0
 5de:	00 c0       	rjmp	.+0      	; 0x5e0 <bitstuff7+0x6>
 5e0:	21 c0       	rjmp	.+66     	; 0x624 <didStuff7>

000005e2 <bitstuffN>:
 5e2:	05 27       	eor	r16, r21
 5e4:	10 e0       	ldi	r17, 0x00	; 0
 5e6:	c8 95       	lpm
 5e8:	08 bb       	out	0x18, r16	; 24
 5ea:	14 c0       	rjmp	.+40     	; 0x614 <didStuffN>

000005ec <sendNakAndReti>:
 5ec:	3a e5       	ldi	r19, 0x5A	; 90
 5ee:	01 c0       	rjmp	.+2      	; 0x5f2 <sendCntAndReti>

000005f0 <sendAckAndReti>:
 5f0:	32 ed       	ldi	r19, 0xD2	; 210

000005f2 <sendCntAndReti>:
 5f2:	03 2e       	mov	r0, r19
 5f4:	c0 e0       	ldi	r28, 0x00	; 0
 5f6:	d0 e0       	ldi	r29, 0x00	; 0
 5f8:	32 e0       	ldi	r19, 0x02	; 2

000005fa <usbSendAndReti>:
 5fa:	17 b3       	in	r17, 0x17	; 23
 5fc:	18 61       	ori	r17, 0x18	; 24
 5fe:	c4 9a       	sbi	0x18, 4	; 24
 600:	08 b3       	in	r16, 0x18	; 24
 602:	17 bb       	out	0x17, r17	; 23
 604:	58 e1       	ldi	r21, 0x18	; 24
 606:	20 e8       	ldi	r18, 0x80	; 128
 608:	4f ef       	ldi	r20, 0xFF	; 255

0000060a <bitloop>:
 60a:	20 ff       	sbrs	r18, 0
 60c:	05 27       	eor	r16, r21
 60e:	08 bb       	out	0x18, r16	; 24
 610:	27 95       	ror	r18
 612:	17 95       	ror	r17

00000614 <didStuffN>:
 614:	1c 3f       	cpi	r17, 0xFC	; 252
 616:	28 f7       	brcc	.-54     	; 0x5e2 <bitstuffN>
 618:	00 00       	nop
 61a:	45 52       	subi	r20, 0x25	; 37
 61c:	b0 f7       	brcc	.-20     	; 0x60a <bitloop>
 61e:	20 ff       	sbrs	r18, 0
 620:	05 27       	eor	r16, r21
 622:	27 95       	ror	r18

00000624 <didStuff7>:
 624:	08 bb       	out	0x18, r16	; 24
 626:	17 95       	ror	r17
 628:	1c 3f       	cpi	r17, 0xFC	; 252
 62a:	b8 f6       	brcc	.-82     	; 0x5da <bitstuff7>
 62c:	29 91       	ld	r18, Y+
 62e:	3a 95       	dec	r19
 630:	61 f7       	brne	.-40     	; 0x60a <bitloop>
 632:	07 7e       	andi	r16, 0xE7	; 231
 634:	10 91 92 00 	lds	r17, 0x0092
 638:	11 0f       	add	r17, r17
 63a:	08 bb       	out	0x18, r16	; 24
 63c:	c2 50       	subi	r28, 0x02	; 2
 63e:	d0 40       	sbci	r29, 0x00	; 0
 640:	11 f0       	breq	.+4      	; 0x646 <skipAddrAssign>
 642:	10 93 8c 00 	sts	0x008C, r17

00000646 <skipAddrAssign>:
 646:	10 e2       	ldi	r17, 0x20	; 32
 648:	1a bf       	out	0x3a, r17	; 58
 64a:	00 61       	ori	r16, 0x10	; 16
 64c:	17 b3       	in	r17, 0x17	; 23
 64e:	17 7e       	andi	r17, 0xE7	; 231
 650:	40 2f       	mov	r20, r16
 652:	47 7e       	andi	r20, 0xE7	; 231
 654:	54 e0       	ldi	r21, 0x04	; 4

00000656 <se0Delay>:
 656:	5a 95       	dec	r21
 658:	f1 f7       	brne	.-4      	; 0x656 <se0Delay>
 65a:	08 bb       	out	0x18, r16	; 24
 65c:	17 bb       	out	0x17, r17	; 23
 65e:	48 bb       	out	0x18, r20	; 24
 660:	7f cf       	rjmp	.-258    	; 0x560 <doReturn>

00000662 <spi>:
 662:	fc 01       	movw	r30, r24
 664:	50 91 62 00 	lds	r21, 0x0062
 668:	86 2f       	mov	r24, r22
 66a:	97 2f       	mov	r25, r23
 66c:	dc 01       	movw	r26, r24
 66e:	94 e0       	ldi	r25, 0x04	; 4
 670:	61 91       	ld	r22, Z+
 672:	28 e0       	ldi	r18, 0x08	; 8
 674:	30 e0       	ldi	r19, 0x00	; 0
 676:	40 e8       	ldi	r20, 0x80	; 128
 678:	80 e0       	ldi	r24, 0x00	; 0
 67a:	74 2f       	mov	r23, r20
 67c:	76 23       	and	r23, r22
 67e:	09 f0       	breq	.+2      	; 0x682 <spi+0x20>
 680:	c0 9a       	sbi	0x18, 0	; 24
 682:	05 2e       	mov	r0, r21
 684:	00 c0       	rjmp	.+0      	; 0x686 <spi+0x24>
 686:	00 00       	nop
 688:	00 00       	nop
 68a:	00 00       	nop
 68c:	0a 94       	dec	r0
 68e:	d1 f7       	brne	.-12     	; 0x684 <spi+0x22>
 690:	c2 9a       	sbi	0x18, 2	; 24
 692:	05 2e       	mov	r0, r21
 694:	00 c0       	rjmp	.+0      	; 0x696 <spi+0x34>
 696:	00 00       	nop
 698:	00 00       	nop
 69a:	00 00       	nop
 69c:	0a 94       	dec	r0
 69e:	d1 f7       	brne	.-12     	; 0x694 <spi+0x32>
 6a0:	88 0f       	add	r24, r24
 6a2:	b1 99       	sbic	0x16, 1	; 22
 6a4:	8f 5f       	subi	r24, 0xFF	; 255
 6a6:	c0 98       	cbi	0x18, 0	; 24
 6a8:	c2 98       	cbi	0x18, 2	; 24
 6aa:	46 95       	lsr	r20
 6ac:	21 50       	subi	r18, 0x01	; 1
 6ae:	30 40       	sbci	r19, 0x00	; 0
 6b0:	21 f7       	brne	.-56     	; 0x67a <spi+0x18>
 6b2:	8d 93       	st	X+, r24
 6b4:	91 50       	subi	r25, 0x01	; 1
 6b6:	e1 f6       	brne	.-72     	; 0x670 <spi+0xe>
 6b8:	08 95       	ret

000006ba <spi_rw>:
 6ba:	80 91 68 00 	lds	r24, 0x0068
 6be:	90 91 69 00 	lds	r25, 0x0069
 6c2:	9c 01       	movw	r18, r24
 6c4:	2f 5f       	subi	r18, 0xFF	; 255
 6c6:	3f 4f       	sbci	r19, 0xFF	; 255
 6c8:	30 93 69 00 	sts	0x0069, r19
 6cc:	20 93 68 00 	sts	0x0068, r18
 6d0:	20 91 6a 00 	lds	r18, 0x006A
 6d4:	27 ff       	sbrs	r18, 7
 6d6:	02 c0       	rjmp	.+4      	; 0x6dc <spi_rw+0x22>
 6d8:	88 0f       	add	r24, r24
 6da:	99 1f       	adc	r25, r25
 6dc:	20 93 6d 00 	sts	0x006D, r18
 6e0:	80 ff       	sbrs	r24, 0
 6e2:	03 c0       	rjmp	.+6      	; 0x6ea <spi_rw+0x30>
 6e4:	28 60       	ori	r18, 0x08	; 8
 6e6:	20 93 6d 00 	sts	0x006D, r18
 6ea:	29 2f       	mov	r18, r25
 6ec:	26 95       	lsr	r18
 6ee:	20 93 6e 00 	sts	0x006E, r18
 6f2:	96 95       	lsr	r25
 6f4:	87 95       	ror	r24
 6f6:	80 93 6f 00 	sts	0x006F, r24
 6fa:	8d e6       	ldi	r24, 0x6D	; 109
 6fc:	90 e0       	ldi	r25, 0x00	; 0
 6fe:	61 e7       	ldi	r22, 0x71	; 113
 700:	70 e0       	ldi	r23, 0x00	; 0
 702:	af df       	rcall	.-162    	; 0x662 <spi>
 704:	08 95       	ret

00000706 <usbFunctionRead>:
 706:	ef 92       	push	r14
 708:	ff 92       	push	r15
 70a:	1f 93       	push	r17
 70c:	df 93       	push	r29
 70e:	cf 93       	push	r28
 710:	0f 92       	push	r0
 712:	cd b7       	in	r28, 0x3d	; 61
 714:	de b7       	in	r29, 0x3e	; 62
 716:	18 2f       	mov	r17, r24
 718:	86 2f       	mov	r24, r22
 71a:	61 2f       	mov	r22, r17
 71c:	79 2f       	mov	r23, r25
 71e:	7b 01       	movw	r14, r22
 720:	08 c0       	rjmp	.+16     	; 0x732 <usbFunctionRead+0x2c>
 722:	89 83       	std	Y+1, r24	; 0x01
 724:	ca df       	rcall	.-108    	; 0x6ba <spi_rw>
 726:	90 91 74 00 	lds	r25, 0x0074
 72a:	f7 01       	movw	r30, r14
 72c:	91 93       	st	Z+, r25
 72e:	7f 01       	movw	r14, r30
 730:	89 81       	ldd	r24, Y+1	; 0x01
 732:	9e 2d       	mov	r25, r14
 734:	91 1b       	sub	r25, r17
 736:	98 17       	cp	r25, r24
 738:	a0 f3       	brcs	.-24     	; 0x722 <usbFunctionRead+0x1c>
 73a:	0f 90       	pop	r0
 73c:	cf 91       	pop	r28
 73e:	df 91       	pop	r29
 740:	1f 91       	pop	r17
 742:	ff 90       	pop	r15
 744:	ef 90       	pop	r14
 746:	08 95       	ret

00000748 <usbFunctionWrite>:
 748:	df 92       	push	r13
 74a:	ef 92       	push	r14
 74c:	ff 92       	push	r15
 74e:	0f 93       	push	r16
 750:	1f 93       	push	r17
 752:	cf 93       	push	r28
 754:	df 93       	push	r29
 756:	f8 2e       	mov	r15, r24
 758:	e6 2e       	mov	r14, r22
 75a:	0f 2d       	mov	r16, r15
 75c:	19 2f       	mov	r17, r25
 75e:	50 e6       	ldi	r21, 0x60	; 96
 760:	d5 2e       	mov	r13, r21
 762:	32 c0       	rjmp	.+100    	; 0x7c8 <usbFunctionWrite+0x80>
 764:	f8 01       	movw	r30, r16
 766:	81 91       	ld	r24, Z+
 768:	8f 01       	movw	r16, r30
 76a:	80 93 70 00 	sts	0x0070, r24
 76e:	a5 df       	rcall	.-182    	; 0x6ba <spi_rw>
 770:	80 91 6d 00 	lds	r24, 0x006D
 774:	8d 25       	eor	r24, r13
 776:	80 93 6d 00 	sts	0x006D, r24
 77a:	c0 e0       	ldi	r28, 0x00	; 0
 77c:	d0 e0       	ldi	r29, 0x00	; 0
 77e:	1d c0       	rjmp	.+58     	; 0x7ba <usbFunctionWrite+0x72>
 780:	8d e6       	ldi	r24, 0x6D	; 109
 782:	90 e0       	ldi	r25, 0x00	; 0
 784:	61 e7       	ldi	r22, 0x71	; 113
 786:	70 e0       	ldi	r23, 0x00	; 0
 788:	6c df       	rcall	.-296    	; 0x662 <spi>
 78a:	80 91 74 00 	lds	r24, 0x0074
 78e:	90 91 70 00 	lds	r25, 0x0070
 792:	89 17       	cp	r24, r25
 794:	41 f4       	brne	.+16     	; 0x7a6 <usbFunctionWrite+0x5e>
 796:	90 91 66 00 	lds	r25, 0x0066
 79a:	89 17       	cp	r24, r25
 79c:	21 f0       	breq	.+8      	; 0x7a6 <usbFunctionWrite+0x5e>
 79e:	90 91 67 00 	lds	r25, 0x0067
 7a2:	89 17       	cp	r24, r25
 7a4:	89 f4       	brne	.+34     	; 0x7c8 <usbFunctionWrite+0x80>
 7a6:	20 91 62 00 	lds	r18, 0x0062
 7aa:	30 e0       	ldi	r19, 0x00	; 0
 7ac:	45 e0       	ldi	r20, 0x05	; 5
 7ae:	22 0f       	add	r18, r18
 7b0:	33 1f       	adc	r19, r19
 7b2:	4a 95       	dec	r20
 7b4:	e1 f7       	brne	.-8      	; 0x7ae <usbFunctionWrite+0x66>
 7b6:	c2 0f       	add	r28, r18
 7b8:	d3 1f       	adc	r29, r19
 7ba:	20 91 6b 00 	lds	r18, 0x006B
 7be:	30 91 6c 00 	lds	r19, 0x006C
 7c2:	c2 17       	cp	r28, r18
 7c4:	d3 07       	cpc	r29, r19
 7c6:	e0 f2       	brcs	.-72     	; 0x780 <usbFunctionWrite+0x38>
 7c8:	80 2f       	mov	r24, r16
 7ca:	8f 19       	sub	r24, r15
 7cc:	8e 15       	cp	r24, r14
 7ce:	50 f2       	brcs	.-108    	; 0x764 <usbFunctionWrite+0x1c>
 7d0:	81 e0       	ldi	r24, 0x01	; 1
 7d2:	df 91       	pop	r29
 7d4:	cf 91       	pop	r28
 7d6:	1f 91       	pop	r17
 7d8:	0f 91       	pop	r16
 7da:	ff 90       	pop	r15
 7dc:	ef 90       	pop	r14
 7de:	df 90       	pop	r13
 7e0:	08 95       	ret

000007e2 <usbFunctionSetup>:
 7e2:	cf 93       	push	r28
 7e4:	df 93       	push	r29
 7e6:	ec 01       	movw	r28, r24
 7e8:	49 81       	ldd	r20, Y+1	; 0x01
 7ea:	44 23       	and	r20, r20
 7ec:	31 f4       	brne	.+12     	; 0x7fa <usbFunctionSetup+0x18>
 7ee:	90 93 90 00 	sts	0x0090, r25
 7f2:	80 93 8f 00 	sts	0x008F, r24
 7f6:	88 e0       	ldi	r24, 0x08	; 8
 7f8:	69 c0       	rjmp	.+210    	; 0x8cc <usbFunctionSetup+0xea>
 7fa:	ec 81       	ldd	r30, Y+4	; 0x04
 7fc:	f0 e0       	ldi	r31, 0x00	; 0
 7fe:	41 30       	cpi	r20, 0x01	; 1
 800:	41 f4       	brne	.+16     	; 0x812 <usbFunctionSetup+0x30>
 802:	80 81       	ld	r24, Z
 804:	88 83       	st	Y, r24
 806:	d0 93 90 00 	sts	0x0090, r29
 80a:	c0 93 8f 00 	sts	0x008F, r28
 80e:	81 e0       	ldi	r24, 0x01	; 1
 810:	5d c0       	rjmp	.+186    	; 0x8cc <usbFunctionSetup+0xea>
 812:	5a 81       	ldd	r21, Y+2	; 0x02
 814:	42 30       	cpi	r20, 0x02	; 2
 816:	11 f4       	brne	.+4      	; 0x81c <usbFunctionSetup+0x3a>
 818:	50 83       	st	Z, r21
 81a:	57 c0       	rjmp	.+174    	; 0x8ca <usbFunctionSetup+0xe8>
 81c:	02 96       	adiw	r24, 0x02	; 2
 81e:	65 2f       	mov	r22, r21
 820:	67 70       	andi	r22, 0x07	; 7
 822:	21 e0       	ldi	r18, 0x01	; 1
 824:	30 e0       	ldi	r19, 0x00	; 0
 826:	01 c0       	rjmp	.+2      	; 0x82a <usbFunctionSetup+0x48>
 828:	22 0f       	add	r18, r18
 82a:	6a 95       	dec	r22
 82c:	ea f7       	brpl	.-6      	; 0x828 <usbFunctionSetup+0x46>
 82e:	43 30       	cpi	r20, 0x03	; 3
 830:	21 f4       	brne	.+8      	; 0x83a <usbFunctionSetup+0x58>
 832:	20 95       	com	r18
 834:	80 81       	ld	r24, Z
 836:	82 23       	and	r24, r18
 838:	04 c0       	rjmp	.+8      	; 0x842 <usbFunctionSetup+0x60>
 83a:	44 30       	cpi	r20, 0x04	; 4
 83c:	21 f4       	brne	.+8      	; 0x846 <usbFunctionSetup+0x64>
 83e:	80 81       	ld	r24, Z
 840:	82 2b       	or	r24, r18
 842:	80 83       	st	Z, r24
 844:	42 c0       	rjmp	.+132    	; 0x8ca <usbFunctionSetup+0xe8>
 846:	45 30       	cpi	r20, 0x05	; 5
 848:	49 f4       	brne	.+18     	; 0x85c <usbFunctionSetup+0x7a>
 84a:	50 93 62 00 	sts	0x0062, r21
 84e:	b9 98       	cbi	0x17, 1	; 23
 850:	87 b3       	in	r24, 0x17	; 23
 852:	85 62       	ori	r24, 0x25	; 37
 854:	87 bb       	out	0x17, r24	; 23
 856:	88 b3       	in	r24, 0x18	; 24
 858:	88 7d       	andi	r24, 0xD8	; 216
 85a:	04 c0       	rjmp	.+8      	; 0x864 <usbFunctionSetup+0x82>
 85c:	46 30       	cpi	r20, 0x06	; 6
 85e:	21 f4       	brne	.+8      	; 0x868 <usbFunctionSetup+0x86>
 860:	80 e2       	ldi	r24, 0x20	; 32
 862:	87 bb       	out	0x17, r24	; 23
 864:	88 bb       	out	0x18, r24	; 24
 866:	31 c0       	rjmp	.+98     	; 0x8ca <usbFunctionSetup+0xe8>
 868:	47 30       	cpi	r20, 0x07	; 7
 86a:	41 f4       	brne	.+16     	; 0x87c <usbFunctionSetup+0x9a>
 86c:	be 01       	movw	r22, r28
 86e:	f9 de       	rcall	.-526    	; 0x662 <spi>
 870:	d0 93 90 00 	sts	0x0090, r29
 874:	c0 93 8f 00 	sts	0x008F, r28
 878:	84 e0       	ldi	r24, 0x04	; 4
 87a:	28 c0       	rjmp	.+80     	; 0x8cc <usbFunctionSetup+0xea>
 87c:	48 30       	cpi	r20, 0x08	; 8
 87e:	31 f4       	brne	.+12     	; 0x88c <usbFunctionSetup+0xaa>
 880:	50 93 66 00 	sts	0x0066, r21
 884:	8b 81       	ldd	r24, Y+3	; 0x03
 886:	80 93 67 00 	sts	0x0067, r24
 88a:	1f c0       	rjmp	.+62     	; 0x8ca <usbFunctionSetup+0xe8>
 88c:	8c 81       	ldd	r24, Y+4	; 0x04
 88e:	9d 81       	ldd	r25, Y+5	; 0x05
 890:	90 93 69 00 	sts	0x0069, r25
 894:	80 93 68 00 	sts	0x0068, r24
 898:	49 30       	cpi	r20, 0x09	; 9
 89a:	11 f4       	brne	.+4      	; 0x8a0 <usbFunctionSetup+0xbe>
 89c:	80 e2       	ldi	r24, 0x20	; 32
 89e:	11 c0       	rjmp	.+34     	; 0x8c2 <usbFunctionSetup+0xe0>
 8a0:	4b 30       	cpi	r20, 0x0B	; 11
 8a2:	11 f4       	brne	.+4      	; 0x8a8 <usbFunctionSetup+0xc6>
 8a4:	80 ea       	ldi	r24, 0xA0	; 160
 8a6:	0d c0       	rjmp	.+26     	; 0x8c2 <usbFunctionSetup+0xe0>
 8a8:	8a 81       	ldd	r24, Y+2	; 0x02
 8aa:	9b 81       	ldd	r25, Y+3	; 0x03
 8ac:	90 93 6c 00 	sts	0x006C, r25
 8b0:	80 93 6b 00 	sts	0x006B, r24
 8b4:	4a 30       	cpi	r20, 0x0A	; 10
 8b6:	11 f4       	brne	.+4      	; 0x8bc <usbFunctionSetup+0xda>
 8b8:	80 e4       	ldi	r24, 0x40	; 64
 8ba:	03 c0       	rjmp	.+6      	; 0x8c2 <usbFunctionSetup+0xe0>
 8bc:	4c 30       	cpi	r20, 0x0C	; 12
 8be:	29 f4       	brne	.+10     	; 0x8ca <usbFunctionSetup+0xe8>
 8c0:	80 ec       	ldi	r24, 0xC0	; 192
 8c2:	80 93 6a 00 	sts	0x006A, r24
 8c6:	8f ef       	ldi	r24, 0xFF	; 255
 8c8:	01 c0       	rjmp	.+2      	; 0x8cc <usbFunctionSetup+0xea>
 8ca:	80 e0       	ldi	r24, 0x00	; 0
 8cc:	df 91       	pop	r29
 8ce:	cf 91       	pop	r28
 8d0:	08 95       	ret

000008d2 <usbEventResetReady>:
 8d2:	df 92       	push	r13
 8d4:	ef 92       	push	r14
 8d6:	ff 92       	push	r15
 8d8:	0f 93       	push	r16
 8da:	1f 93       	push	r17
 8dc:	cf 93       	push	r28
 8de:	df 93       	push	r29
 8e0:	c8 e0       	ldi	r28, 0x08	; 8
 8e2:	d0 e0       	ldi	r29, 0x00	; 0
 8e4:	ff 24       	eor	r15, r15
 8e6:	60 e8       	ldi	r22, 0x80	; 128
 8e8:	e6 2e       	mov	r14, r22
 8ea:	de 2c       	mov	r13, r14
 8ec:	df 0c       	add	r13, r15
 8ee:	d1 be       	out	0x31, r13	; 49
 8f0:	47 dd       	rcall	.-1394   	; 0x380 <usbMeasureFrameLength>
 8f2:	08 2f       	mov	r16, r24
 8f4:	19 2f       	mov	r17, r25
 8f6:	89 e0       	ldi	r24, 0x09	; 9
 8f8:	04 33       	cpi	r16, 0x34	; 52
 8fa:	18 07       	cpc	r17, r24
 8fc:	0c f4       	brge	.+2      	; 0x900 <usbEventResetReady+0x2e>
 8fe:	fd 2c       	mov	r15, r13
 900:	e6 94       	lsr	r14
 902:	21 97       	sbiw	r28, 0x01	; 1
 904:	91 f7       	brne	.-28     	; 0x8ea <usbEventResetReady+0x18>
 906:	8f 2d       	mov	r24, r15
 908:	81 50       	subi	r24, 0x01	; 1
 90a:	81 bf       	out	0x31, r24	; 49
 90c:	cf 2d       	mov	r28, r15
 90e:	d0 e0       	ldi	r29, 0x00	; 0
 910:	21 96       	adiw	r28, 0x01	; 1
 912:	10 c0       	rjmp	.+32     	; 0x934 <usbEventResetReady+0x62>
 914:	35 dd       	rcall	.-1430   	; 0x380 <usbMeasureFrameLength>
 916:	84 53       	subi	r24, 0x34	; 52
 918:	99 40       	sbci	r25, 0x09	; 9
 91a:	97 ff       	sbrs	r25, 7
 91c:	03 c0       	rjmp	.+6      	; 0x924 <usbEventResetReady+0x52>
 91e:	90 95       	com	r25
 920:	81 95       	neg	r24
 922:	9f 4f       	sbci	r25, 0xFF	; 255
 924:	80 17       	cp	r24, r16
 926:	91 07       	cpc	r25, r17
 928:	14 f4       	brge	.+4      	; 0x92e <usbEventResetReady+0x5c>
 92a:	f1 b6       	in	r15, 0x31	; 49
 92c:	8c 01       	movw	r16, r24
 92e:	81 b7       	in	r24, 0x31	; 49
 930:	8f 5f       	subi	r24, 0xFF	; 255
 932:	81 bf       	out	0x31, r24	; 49
 934:	81 b7       	in	r24, 0x31	; 49
 936:	90 e0       	ldi	r25, 0x00	; 0
 938:	c8 17       	cp	r28, r24
 93a:	d9 07       	cpc	r29, r25
 93c:	5c f7       	brge	.-42     	; 0x914 <usbEventResetReady+0x42>
 93e:	f1 be       	out	0x31, r15	; 49
 940:	61 b7       	in	r22, 0x31	; 49
 942:	80 e0       	ldi	r24, 0x00	; 0
 944:	90 e0       	ldi	r25, 0x00	; 0
 946:	32 d0       	rcall	.+100    	; 0x9ac <__eewr_byte_tn45>
 948:	df 91       	pop	r29
 94a:	cf 91       	pop	r28
 94c:	1f 91       	pop	r17
 94e:	0f 91       	pop	r16
 950:	ff 90       	pop	r15
 952:	ef 90       	pop	r14
 954:	df 90       	pop	r13
 956:	08 95       	ret

00000958 <main>:
 958:	80 e2       	ldi	r24, 0x20	; 32
 95a:	87 bb       	out	0x17, r24	; 23
 95c:	88 bb       	out	0x18, r24	; 24
 95e:	80 e0       	ldi	r24, 0x00	; 0
 960:	90 e0       	ldi	r25, 0x00	; 0
 962:	1c d0       	rcall	.+56     	; 0x99c <__eerd_byte_tn45>
 964:	8f 3f       	cpi	r24, 0xFF	; 255
 966:	09 f0       	breq	.+2      	; 0x96a <main+0x12>
 968:	81 bf       	out	0x31, r24	; 49
 96a:	bc 9a       	sbi	0x17, 4	; 23
 96c:	84 e1       	ldi	r24, 0x14	; 20
 96e:	e2 eb       	ldi	r30, 0xB2	; 178
 970:	f1 ef       	ldi	r31, 0xF1	; 241
 972:	31 97       	sbiw	r30, 0x01	; 1
 974:	f1 f7       	brne	.-4      	; 0x972 <main+0x1a>
 976:	00 c0       	rjmp	.+0      	; 0x978 <main+0x20>
 978:	00 00       	nop
 97a:	81 50       	subi	r24, 0x01	; 1
 97c:	c1 f7       	brne	.-16     	; 0x96e <main+0x16>
 97e:	bc 98       	cbi	0x17, 4	; 23
 980:	2e e0       	ldi	r18, 0x0E	; 14
 982:	88 e1       	ldi	r24, 0x18	; 24
 984:	90 e0       	ldi	r25, 0x00	; 0
 986:	0f b6       	in	r0, 0x3f	; 63
 988:	f8 94       	cli
 98a:	a8 95       	wdr
 98c:	81 bd       	out	0x21, r24	; 33
 98e:	0f be       	out	0x3f, r0	; 63
 990:	21 bd       	out	0x21, r18	; 33
 992:	d2 dc       	rcall	.-1628   	; 0x338 <usbInit>
 994:	78 94       	sei
 996:	a8 95       	wdr
 998:	a7 db       	rcall	.-2226   	; 0xe8 <usbPoll>
 99a:	fd cf       	rjmp	.-6      	; 0x996 <main+0x3e>

0000099c <__eerd_byte_tn45>:
 99c:	e1 99       	sbic	0x1c, 1	; 28
 99e:	fe cf       	rjmp	.-4      	; 0x99c <__eerd_byte_tn45>
 9a0:	1f ba       	out	0x1f, r1	; 31
 9a2:	8e bb       	out	0x1e, r24	; 30
 9a4:	e0 9a       	sbi	0x1c, 0	; 28
 9a6:	99 27       	eor	r25, r25
 9a8:	8d b3       	in	r24, 0x1d	; 29
 9aa:	08 95       	ret

000009ac <__eewr_byte_tn45>:
 9ac:	26 2f       	mov	r18, r22

000009ae <__eewr_r18_tn45>:
 9ae:	e1 99       	sbic	0x1c, 1	; 28
 9b0:	fe cf       	rjmp	.-4      	; 0x9ae <__eewr_r18_tn45>
 9b2:	1c ba       	out	0x1c, r1	; 28
 9b4:	1f ba       	out	0x1f, r1	; 31
 9b6:	8e bb       	out	0x1e, r24	; 30
 9b8:	2d bb       	out	0x1d, r18	; 29
 9ba:	0f b6       	in	r0, 0x3f	; 63
 9bc:	f8 94       	cli
 9be:	e2 9a       	sbi	0x1c, 2	; 28
 9c0:	e1 9a       	sbi	0x1c, 1	; 28
 9c2:	0f be       	out	0x3f, r0	; 63
 9c4:	01 96       	adiw	r24, 0x01	; 1
 9c6:	08 95       	ret

000009c8 <_exit>:
 9c8:	f8 94       	cli

000009ca <__stop_program>:
 9ca:	ff cf       	rjmp	.-2      	; 0x9ca <__stop_program>
